target datalayout = "e-m:e-p270:32:32-p271:32:32-p272:64:64-i64:64-i128:128-f80:128-n8:16:32:64-S128"
target triple = "x86_64-pc-linux-gnu"

%"class.gmx::SimulationSignaller" = type { ptr, ptr, ptr, i8, i8, %"struct.std::array" }
%"struct.std::array" = type { [3 x float] }

; Function Attrs: mustprogress nounwind uwtable
define void @_ZN3gmx19SimulationSignallerC2EPSt5arrayINS_16SimulationSignalELm3EEPK9t_commrecPK14gmx_multisim_tbb(ptr noundef nonnull align 8 dereferenceable(40) %0, ptr noundef %1, ptr noundef %2, ptr noundef %3, i1 noundef zeroext %4, i1 noundef zeroext %5) unnamed_addr #0 align 2 {
  %7 = alloca ptr, align 8
  %8 = alloca ptr, align 8
  %9 = alloca ptr, align 8
  %10 = alloca ptr, align 8
  %11 = alloca i8, align 1
  %12 = alloca i8, align 1
  store ptr %0, ptr %7, align 8, !tbaa !4
  store ptr %1, ptr %8, align 8, !tbaa !9
  store ptr %2, ptr %9, align 8, !tbaa !11
  store ptr %3, ptr %10, align 8, !tbaa !13
  %13 = zext i1 %4 to i8
  store i8 %13, ptr %11, align 1, !tbaa !15
  %14 = zext i1 %5 to i8
  store i8 %14, ptr %12, align 1, !tbaa !15
  %15 = load ptr, ptr %7, align 8
  %16 = getelementptr inbounds nuw %"class.gmx::SimulationSignaller", ptr %15, i32 0, i32 0
  %17 = load ptr, ptr %8, align 8, !tbaa !9
  store ptr %17, ptr %16, align 8, !tbaa !17
  %18 = getelementptr inbounds nuw %"class.gmx::SimulationSignaller", ptr %15, i32 0, i32 1
  %19 = load ptr, ptr %9, align 8, !tbaa !11
  store ptr %19, ptr %18, align 8, !tbaa !20
  %20 = getelementptr inbounds nuw %"class.gmx::SimulationSignaller", ptr %15, i32 0, i32 2
  %21 = load ptr, ptr %10, align 8, !tbaa !13
  store ptr %21, ptr %20, align 8, !tbaa !21
  %22 = getelementptr inbounds nuw %"class.gmx::SimulationSignaller", ptr %15, i32 0, i32 3
  %23 = load i8, ptr %11, align 1, !tbaa !15, !range !22, !noundef !23
  %24 = trunc i8 %23 to i1
  %25 = zext i1 %24 to i8
  store i8 %25, ptr %22, align 8, !tbaa !24
  %26 = getelementptr inbounds nuw %"class.gmx::SimulationSignaller", ptr %15, i32 0, i32 4
  %27 = load i8, ptr %11, align 1, !tbaa !15, !range !22, !noundef !23
  %28 = trunc i8 %27 to i1
  br i1 %28, label %32, label %29

29:                                               ; preds = %6
  %30 = load i8, ptr %12, align 1, !tbaa !15, !range !22, !noundef !23
  %31 = trunc i8 %30 to i1
  br label %32

32:                                               ; preds = %29, %6
  %33 = phi i1 [ true, %6 ], [ %31, %29 ]
  %34 = zext i1 %33 to i8
  store i8 %34, ptr %26, align 1, !tbaa !25
  %35 = getelementptr inbounds nuw %"class.gmx::SimulationSignaller", ptr %15, i32 0, i32 5
  %36 = getelementptr inbounds nuw %"struct.std::array", ptr %35, i32 0, i32 0
  call void @llvm.memset.p0.i64(ptr align 4 %36, i8 0, i64 12, i1 false)
  ret void
}