; Function Attrs: mustprogress nofree norecurse nosync nounwind willreturn memory(argmem: write) uwtable
define void @_ZN3gmx19SimulationSignallerC2EPSt5arrayINS_16SimulationSignalELm3EEPK9t_commrecPK14gmx_multisim_tbb(ptr noundef nonnull writeonly align 8 captures(none) dereferenceable(40) initializes((0, 26), (28, 40)) %0, ptr noundef %1, ptr noundef %2, ptr noundef %3, i1 noundef zeroext %4, i1 noundef zeroext %5) unnamed_addr #0 align 2 {
  %7 = zext i1 %4 to i8
  store ptr %1, ptr %0, align 8, !tbaa !4
  %8 = getelementptr inbounds nuw i8, ptr %0, i64 8
  store ptr %2, ptr %8, align 8, !tbaa !14
  %9 = getelementptr inbounds nuw i8, ptr %0, i64 16
  store ptr %3, ptr %9, align 8, !tbaa !15
  %10 = getelementptr inbounds nuw i8, ptr %0, i64 24
  store i8 %7, ptr %10, align 8, !tbaa !16
  %11 = getelementptr inbounds nuw i8, ptr %0, i64 25
  %12 = or i1 %4, %5
  %13 = zext i1 %12 to i8
  store i8 %13, ptr %11, align 1, !tbaa !17
  %14 = getelementptr inbounds nuw i8, ptr %0, i64 28
  tail call void @llvm.memset.p0.i64(ptr noundef nonnull align 4 dereferenceable(12) %14, i8 0, i64 12, i1 false)
  ret void
}